; Function Attrs: mustprogress nounwind uwtable
define internal void @_ZNSt15_Sp_counted_ptrIPN19OpenColorIO_v2_4dev12_GLOBAL__N_115LocalCachedFileELN9__gnu_cxx12_Lock_policyE2EE10_M_disposeEv(ptr nocapture noundef nonnull readonly align 8 dereferenceable(24) %this) unnamed_addr #3 align 2 {
entry:
  %_M_ptr = getelementptr inbounds i8, ptr %this, i64 16
  %0 = load ptr, ptr %_M_ptr, align 8
  %isnull = icmp eq ptr %0, null
  br i1 %isnull, label %delete.end, label %delete.notnull

delete.notnull:                                   ; preds = %entry
  %vtable = load ptr, ptr %0, align 8
  %vfn = getelementptr inbounds i8, ptr %vtable, i64 8
  %1 = load ptr, ptr %vfn, align 8
  tail call void %1(ptr noundef nonnull align 8 dereferenceable(24) %0) #17
  br label %delete.end

delete.end:                                       ; preds = %delete.notnull, %entry
  ret void
}